target datalayout = "e-m:e-p270:32:32-p271:32:32-p272:64:64-i64:64-i128:128-f80:128-n8:16:32:64-S128"
target triple = "x86_64-pc-linux-gnu"

%"struct.std::atomic.14" = type { %"struct.std::__atomic_base.15" }
%"struct.std::__atomic_base.15" = type { i8 }
%struct.grpc_cq_completion = type { %"class.grpc_core::ManualConstructor", ptr, ptr, ptr, i64 }
%"class.grpc_core::ManualConstructor" = type { [8 x i8] }
%"struct.std::atomic" = type { %"struct.std::__atomic_base" }
%"struct.std::__atomic_base" = type { i64 }
%"class.absl::lts_20240722::log_internal::Voidify" = type { i8 }
%"class.absl::lts_20240722::log_internal::LogMessageFatal" = type { %"class.absl::lts_20240722::log_internal::LogMessage" }
%"class.absl::lts_20240722::log_internal::LogMessage" = type { %"class.absl::lts_20240722::base_internal::ErrnoSaver", %"class.std::unique_ptr" }
%"class.absl::lts_20240722::base_internal::ErrnoSaver" = type { i32 }
%"class.std::unique_ptr" = type { %"struct.std::__uniq_ptr_data" }
%"struct.std::__uniq_ptr_data" = type { %"class.std::__uniq_ptr_impl" }
%"class.std::__uniq_ptr_impl" = type { %"class.std::tuple" }
%"class.std::tuple" = type { %"struct.std::_Tuple_impl" }
%"struct.std::_Tuple_impl" = type { %"struct.std::_Head_base.17" }
%"struct.std::_Head_base.17" = type { ptr }
%"class.std::basic_string_view" = type { i64, ptr }
%"struct.(anonymous namespace)::cq_pluck_data" = type { %struct.grpc_cq_completion, ptr, %"struct.std::atomic", %"struct.std::atomic", %"struct.std::atomic.14", i8, i32, [6 x %"struct.(anonymous namespace)::plucker"] }
%"struct.(anonymous namespace)::plucker" = type { ptr, ptr }

@.str = private unnamed_addr constant [128 x i8] c"generated/home/dtcxzyw/WorkSpace/Projects/compilers/llvm-opt-benchmark/bench/grpc/grpc/src/core/lib/surface/completion_queue.cc\00", align 1
@.str.34 = private unnamed_addr constant [68 x i8] c"completed_head.next == reinterpret_cast<uintptr_t>(&completed_head)\00", align 1

; Function Attrs: mustprogress nounwind uwtable
define linkonce_odr noundef i64 @_ZNSt11char_traitsIcE6lengthEPKc(ptr noundef %0) #4 comdat align 2 {
  %2 = alloca ptr, align 8
  store ptr %0, ptr %2, align 8, !tbaa !61
  %3 = load ptr, ptr %2, align 8, !tbaa !61
  %4 = call i64 @strlen(ptr noundef %3) #3
  ret i64 %4
}

; Function Attrs: mustprogress nounwind uwtable
define linkonce_odr void @_ZNKO4absl12lts_2024072212log_internal7VoidifyaaINS1_10LogMessageEEEvRKT_(ptr noundef nonnull align 1 dereferenceable(1) %0, ptr noundef nonnull align 8 dereferenceable(16) %1) #4 comdat align 2 {
  %3 = alloca ptr, align 8
  %4 = alloca ptr, align 8
  store ptr %0, ptr %3, align 8, !tbaa !97
  store ptr %1, ptr %4, align 8, !tbaa !99
  ret void
}

; Function Attrs: mustprogress nounwind uwtable
define linkonce_odr noundef nonnull align 8 dereferenceable(16) ptr @_ZN4absl12lts_2024072212log_internal10LogMessage14InternalStreamEv(ptr noundef nonnull align 8 dereferenceable(16) %0) #4 comdat align 2 {
  %2 = alloca ptr, align 8
  store ptr %0, ptr %2, align 8, !tbaa !99
  %3 = load ptr, ptr %2, align 8
  ret ptr %3
}

; Function Attrs: mustprogress nounwind uwtable
define linkonce_odr void @_ZNSt17basic_string_viewIcSt11char_traitsIcEEC2EPKc(ptr noundef nonnull align 8 dereferenceable(16) %0, ptr noundef nonnull %1) unnamed_addr #4 comdat align 2 personality ptr @__gxx_personality_v0 {
  %3 = alloca ptr, align 8
  %4 = alloca ptr, align 8
  store ptr %0, ptr %3, align 8, !tbaa !272
  store ptr %1, ptr %4, align 8, !tbaa !61
  %5 = load ptr, ptr %3, align 8
  %6 = getelementptr inbounds nuw %"class.std::basic_string_view", ptr %5, i32 0, i32 0
  %7 = load ptr, ptr %4, align 8, !tbaa !61
  %8 = invoke noundef i64 @_ZNSt11char_traitsIcE6lengthEPKc(ptr noundef %7)
          to label %9 unwind label %12

9:                                                ; preds = %2
  store i64 %8, ptr %6, align 8, !tbaa !274
  %10 = getelementptr inbounds nuw %"class.std::basic_string_view", ptr %5, i32 0, i32 1
  %11 = load ptr, ptr %4, align 8, !tbaa !61
  store ptr %11, ptr %10, align 8, !tbaa !276
  ret void

12:                                               ; preds = %2
  %13 = landingpad { ptr, i32 }
          catch ptr null
  %14 = extractvalue { ptr, i32 } %13, 0
  call void @__clang_call_terminate(ptr %14) #27
  unreachable
}

; Function Attrs: mustprogress nounwind uwtable
define internal void @_ZN12_GLOBAL__N_113cq_pluck_dataD2Ev(ptr noundef nonnull align 8 dereferenceable(168) %0) unnamed_addr #4 align 2 personality ptr @__gxx_personality_v0 {
  %2 = alloca ptr, align 8
  %3 = alloca %"class.absl::lts_20240722::log_internal::Voidify", align 1
  %4 = alloca %"class.absl::lts_20240722::log_internal::LogMessageFatal", align 8
  %5 = alloca i1, align 1
  %6 = alloca %"class.std::basic_string_view", align 8
  %7 = alloca i1, align 1
  store ptr %0, ptr %2, align 8, !tbaa !224
  %8 = load ptr, ptr %2, align 8
  %9 = getelementptr inbounds nuw %"struct.(anonymous namespace)::cq_pluck_data", ptr %8, i32 0, i32 0
  %10 = getelementptr inbounds nuw %struct.grpc_cq_completion, ptr %9, i32 0, i32 4
  %11 = load i64, ptr %10, align 8, !tbaa !328
  %12 = getelementptr inbounds nuw %"struct.(anonymous namespace)::cq_pluck_data", ptr %8, i32 0, i32 0
  %13 = ptrtoint ptr %12 to i64
  %14 = icmp eq i64 %11, %13
  %15 = xor i1 %14, true
  %16 = zext i1 %15 to i64
  %17 = call i64 @llvm.expect.i64(i64 %16, i64 0)
  %18 = icmp ne i64 %17, 0
  call void @llvm.lifetime.start.p0(i64 1, ptr %3) #3
  store i1 false, ptr %5, align 1
  store i1 false, ptr %7, align 1
  br i1 %18, label %20, label %19

19:                                               ; preds = %1
  br label %28

20:                                               ; preds = %1
  call void @llvm.lifetime.start.p0(i64 16, ptr %4) #3
  store i1 true, ptr %5, align 1
  call void @_ZNSt17basic_string_viewIcSt11char_traitsIcEEC2EPKc(ptr noundef nonnull align 8 dereferenceable(16) %6, ptr noundef @.str.34) #3
  %21 = getelementptr inbounds nuw { i64, ptr }, ptr %6, i32 0, i32 0
  %22 = load i64, ptr %21, align 8
  %23 = getelementptr inbounds nuw { i64, ptr }, ptr %6, i32 0, i32 1
  %24 = load ptr, ptr %23, align 8
  invoke void @_ZN4absl12lts_2024072212log_internal15LogMessageFatalC1EPKciSt17basic_string_viewIcSt11char_traitsIcEE(ptr noundef nonnull align 8 dereferenceable(16) %4, ptr noundef @.str, i32 noundef 284, i64 %22, ptr %24) #26
          to label %25 unwind label %36

25:                                               ; preds = %20
  store i1 true, ptr %7, align 1
  %26 = call noundef nonnull align 8 dereferenceable(16) ptr @_ZN4absl12lts_2024072212log_internal10LogMessage14InternalStreamEv(ptr noundef nonnull align 8 dereferenceable(16) %4)
  invoke void @_ZNKO4absl12lts_2024072212log_internal7VoidifyaaINS1_10LogMessageEEEvRKT_(ptr noundef nonnull align 1 dereferenceable(1) %3, ptr noundef nonnull align 8 dereferenceable(16) %26)
          to label %27 unwind label %36

27:                                               ; preds = %25
  br label %28

28:                                               ; preds = %27, %19
  %29 = load i1, ptr %7, align 1
  br i1 %29, label %30, label %32

30:                                               ; preds = %28
  call void @_ZN4absl12lts_2024072212log_internal15LogMessageFatalD1Ev(ptr noundef nonnull align 8 dereferenceable(16) %4) #27
  unreachable

31:                                               ; No predecessors!
  br label %32

32:                                               ; preds = %31, %28
  %33 = load i1, ptr %5, align 1
  br i1 %33, label %34, label %35

34:                                               ; preds = %32
  call void @llvm.lifetime.end.p0(i64 16, ptr %4) #3
  br label %35

35:                                               ; preds = %34, %32
  call void @llvm.lifetime.end.p0(i64 1, ptr %3) #3
  ret void

36:                                               ; preds = %25, %20
  %37 = landingpad { ptr, i32 }
          catch ptr null
  %38 = extractvalue { ptr, i32 } %37, 0
  call void @__clang_call_terminate(ptr %38) #27
  unreachable
}

; Function Attrs: mustprogress nounwind uwtable
define internal void @_ZL16cq_destroy_pluckPv(ptr noundef %0) #4 {
  %2 = alloca ptr, align 8
  %3 = alloca ptr, align 8
  store ptr %0, ptr %2, align 8, !tbaa !20
  call void @llvm.lifetime.start.p0(i64 8, ptr %3) #3
  %4 = load ptr, ptr %2, align 8, !tbaa !20
  store ptr %4, ptr %3, align 8, !tbaa !224
  %5 = load ptr, ptr %3, align 8, !tbaa !224
  call void @_ZN12_GLOBAL__N_113cq_pluck_dataD2Ev(ptr noundef nonnull align 8 dereferenceable(168) %5) #3
  call void @llvm.lifetime.end.p0(i64 8, ptr %3) #3
  ret void
}