; Function Attrs: mustprogress nounwind uwtable
define internal void @_ZL16cq_destroy_pluckPv(ptr noundef %0) #18 personality ptr @__gxx_personality_v0 {
  %2 = alloca %"class.absl::lts_20240722::log_internal::LogMessageFatal", align 8
  %3 = getelementptr inbounds nuw i8, ptr %0, i64 32
  %4 = load i64, ptr %3, align 8, !tbaa !154
  %5 = ptrtoint ptr %0 to i64
  %.not.not.i = icmp eq i64 %4, %5
  br i1 %.not.not.i, label %_ZN12_GLOBAL__N_113cq_pluck_dataD2Ev.exit, label %6, !prof !72

6:                                                ; preds = %1
  call void @llvm.lifetime.start.p0(i64 16, ptr nonnull %2) #36
  invoke void @_ZN4absl12lts_2024072212log_internal15LogMessageFatalC1EPKciSt17basic_string_viewIcSt11char_traitsIcEE(ptr noundef nonnull align 8 dereferenceable(16) %2, ptr noundef nonnull @.str, i32 noundef 284, i64 67, ptr nonnull @.str.34) #38
          to label %7 unwind label %8

7:                                                ; preds = %6
  call void @_ZN4absl12lts_2024072212log_internal15LogMessageFatalD1Ev(ptr noundef nonnull align 8 dereferenceable(16) %2) #37
  unreachable

8:                                                ; preds = %6
  %9 = landingpad { ptr, i32 }
          catch ptr null
  %10 = extractvalue { ptr, i32 } %9, 0
  call void @__clang_call_terminate(ptr %10) #37
  unreachable

_ZN12_GLOBAL__N_113cq_pluck_dataD2Ev.exit:        ; preds = %1
  ret void
}